target datalayout = "e-m:e-p270:32:32-p271:32:32-p272:64:64-i64:64-i128:128-f80:128-n8:16:32:64-S128"
target triple = "x86_64-pc-linux-gnu"

@.str = private unnamed_addr constant [28 x i8] c"-----BEGIN CERTIFICATE-----\00", align 1
@.str.1 = private unnamed_addr constant [26 x i8] c"-----END CERTIFICATE-----\00", align 1
@.str.2 = private unnamed_addr constant [30 x i8] c"-----BEGIN DH PARAMETERS-----\00", align 1
@.str.3 = private unnamed_addr constant [28 x i8] c"-----END DH PARAMETERS-----\00", align 1
@.str.4 = private unnamed_addr constant [36 x i8] c"-----BEGIN X9.42 DH PARAMETERS-----\00", align 1
@.str.5 = private unnamed_addr constant [34 x i8] c"-----END X9.42 DH PARAMETERS-----\00", align 1
@.str.6 = private unnamed_addr constant [25 x i8] c"-----BEGIN X509 CRL-----\00", align 1
@.str.7 = private unnamed_addr constant [23 x i8] c"-----END X509 CRL-----\00", align 1
@.str.8 = private unnamed_addr constant [36 x i8] c"-----BEGIN TRUSTED CERTIFICATE-----\00", align 1
@.str.9 = private unnamed_addr constant [34 x i8] c"-----END TRUSTED CERTIFICATE-----\00", align 1
@.str.10 = private unnamed_addr constant [32 x i8] c"-----BEGIN RSA PRIVATE KEY-----\00", align 1
@.str.11 = private unnamed_addr constant [30 x i8] c"-----END RSA PRIVATE KEY-----\00", align 1
@.str.12 = private unnamed_addr constant [31 x i8] c"-----BEGIN RSA PUBLIC KEY-----\00", align 1
@.str.13 = private unnamed_addr constant [29 x i8] c"-----END RSA PUBLIC KEY-----\00", align 1
@.str.14 = private unnamed_addr constant [28 x i8] c"-----BEGIN PRIVATE KEY-----\00", align 1
@.str.15 = private unnamed_addr constant [26 x i8] c"-----END PRIVATE KEY-----\00", align 1
@.str.16 = private unnamed_addr constant [38 x i8] c"-----BEGIN ENCRYPTED PRIVATE KEY-----\00", align 1
@.str.17 = private unnamed_addr constant [36 x i8] c"-----END ENCRYPTED PRIVATE KEY-----\00", align 1
@.str.18 = private unnamed_addr constant [31 x i8] c"-----BEGIN EC PRIVATE KEY-----\00", align 1
@.str.19 = private unnamed_addr constant [29 x i8] c"-----END EC PRIVATE KEY-----\00", align 1
@.str.22 = private unnamed_addr constant [27 x i8] c"-----BEGIN PUBLIC KEY-----\00", align 1
@.str.23 = private unnamed_addr constant [25 x i8] c"-----END PUBLIC KEY-----\00", align 1

; Function Attrs: nounwind uwtable
define i32 @wc_PemGetHeaderFooter(i32 noundef %0, ptr noundef %1, ptr noundef %2) #0 {
  %4 = alloca i32, align 4
  %5 = alloca ptr, align 8
  %6 = alloca ptr, align 8
  %7 = alloca i32, align 4
  store i32 %0, ptr %4, align 4, !tbaa !3
  store ptr %1, ptr %5, align 8, !tbaa !90
  store ptr %2, ptr %6, align 8, !tbaa !90
  call void @llvm.lifetime.start.p0(i64 4, ptr %7) #9
  store i32 -173, ptr %7, align 4, !tbaa !3
  %8 = load i32, ptr %4, align 4, !tbaa !3
  switch i32 %8, label %130 [
    i32 6, label %9
    i32 17, label %9
    i32 42, label %9
    i32 0, label %9
    i32 5, label %20
    i32 3, label %31
    i32 26, label %42
    i32 12, label %53
    i32 7, label %53
    i32 13, label %64
    i32 1, label %64
    i32 14, label %75
    i32 16, label %75
    i32 15, label %86
    i32 25, label %97
    i32 22, label %97
    i32 23, label %108
    i32 44, label %119
  ]

9:                                                ; preds = %3, %3, %3, %3
  %10 = load ptr, ptr %5, align 8, !tbaa !90
  %11 = icmp ne ptr %10, null
  br i1 %11, label %12, label %14

12:                                               ; preds = %9
  %13 = load ptr, ptr %5, align 8, !tbaa !90
  store ptr @.str, ptr %13, align 8, !tbaa !7
  br label %14

14:                                               ; preds = %12, %9
  %15 = load ptr, ptr %6, align 8, !tbaa !90
  %16 = icmp ne ptr %15, null
  br i1 %16, label %17, label %19

17:                                               ; preds = %14
  %18 = load ptr, ptr %6, align 8, !tbaa !90
  store ptr @.str.1, ptr %18, align 8, !tbaa !7
  br label %19

19:                                               ; preds = %17, %14
  store i32 0, ptr %7, align 4, !tbaa !3
  br label %131

20:                                               ; preds = %3
  %21 = load ptr, ptr %5, align 8, !tbaa !90
  %22 = icmp ne ptr %21, null
  br i1 %22, label %23, label %25

23:                                               ; preds = %20
  %24 = load ptr, ptr %5, align 8, !tbaa !90
  store ptr @.str.6, ptr %24, align 8, !tbaa !7
  br label %25

25:                                               ; preds = %23, %20
  %26 = load ptr, ptr %6, align 8, !tbaa !90
  %27 = icmp ne ptr %26, null
  br i1 %27, label %28, label %30

28:                                               ; preds = %25
  %29 = load ptr, ptr %6, align 8, !tbaa !90
  store ptr @.str.7, ptr %29, align 8, !tbaa !7
  br label %30

30:                                               ; preds = %28, %25
  store i32 0, ptr %7, align 4, !tbaa !3
  br label %131

31:                                               ; preds = %3
  %32 = load ptr, ptr %5, align 8, !tbaa !90
  %33 = icmp ne ptr %32, null
  br i1 %33, label %34, label %36

34:                                               ; preds = %31
  %35 = load ptr, ptr %5, align 8, !tbaa !90
  store ptr @.str.2, ptr %35, align 8, !tbaa !7
  br label %36

36:                                               ; preds = %34, %31
  %37 = load ptr, ptr %6, align 8, !tbaa !90
  %38 = icmp ne ptr %37, null
  br i1 %38, label %39, label %41

39:                                               ; preds = %36
  %40 = load ptr, ptr %6, align 8, !tbaa !90
  store ptr @.str.3, ptr %40, align 8, !tbaa !7
  br label %41

41:                                               ; preds = %39, %36
  store i32 0, ptr %7, align 4, !tbaa !3
  br label %131

42:                                               ; preds = %3
  %43 = load ptr, ptr %5, align 8, !tbaa !90
  %44 = icmp ne ptr %43, null
  br i1 %44, label %45, label %47

45:                                               ; preds = %42
  %46 = load ptr, ptr %5, align 8, !tbaa !90
  store ptr @.str.4, ptr %46, align 8, !tbaa !7
  br label %47

47:                                               ; preds = %45, %42
  %48 = load ptr, ptr %6, align 8, !tbaa !90
  %49 = icmp ne ptr %48, null
  br i1 %49, label %50, label %52

50:                                               ; preds = %47
  %51 = load ptr, ptr %6, align 8, !tbaa !90
  store ptr @.str.5, ptr %51, align 8, !tbaa !7
  br label %52

52:                                               ; preds = %50, %47
  store i32 0, ptr %7, align 4, !tbaa !3
  br label %131

53:                                               ; preds = %3, %3
  %54 = load ptr, ptr %5, align 8, !tbaa !90
  %55 = icmp ne ptr %54, null
  br i1 %55, label %56, label %58

56:                                               ; preds = %53
  %57 = load ptr, ptr %5, align 8, !tbaa !90
  store ptr @.str.18, ptr %57, align 8, !tbaa !7
  br label %58

58:                                               ; preds = %56, %53
  %59 = load ptr, ptr %6, align 8, !tbaa !90
  %60 = icmp ne ptr %59, null
  br i1 %60, label %61, label %63

61:                                               ; preds = %58
  %62 = load ptr, ptr %6, align 8, !tbaa !90
  store ptr @.str.19, ptr %62, align 8, !tbaa !7
  br label %63

63:                                               ; preds = %61, %58
  store i32 0, ptr %7, align 4, !tbaa !3
  br label %131

64:                                               ; preds = %3, %3
  %65 = load ptr, ptr %5, align 8, !tbaa !90
  %66 = icmp ne ptr %65, null
  br i1 %66, label %67, label %69

67:                                               ; preds = %64
  %68 = load ptr, ptr %5, align 8, !tbaa !90
  store ptr @.str.10, ptr %68, align 8, !tbaa !7
  br label %69

69:                                               ; preds = %67, %64
  %70 = load ptr, ptr %6, align 8, !tbaa !90
  %71 = icmp ne ptr %70, null
  br i1 %71, label %72, label %74

72:                                               ; preds = %69
  %73 = load ptr, ptr %6, align 8, !tbaa !90
  store ptr @.str.11, ptr %73, align 8, !tbaa !7
  br label %74

74:                                               ; preds = %72, %69
  store i32 0, ptr %7, align 4, !tbaa !3
  br label %131

75:                                               ; preds = %3, %3
  %76 = load ptr, ptr %5, align 8, !tbaa !90
  %77 = icmp ne ptr %76, null
  br i1 %77, label %78, label %80

78:                                               ; preds = %75
  %79 = load ptr, ptr %5, align 8, !tbaa !90
  store ptr @.str.22, ptr %79, align 8, !tbaa !7
  br label %80

80:                                               ; preds = %78, %75
  %81 = load ptr, ptr %6, align 8, !tbaa !90
  %82 = icmp ne ptr %81, null
  br i1 %82, label %83, label %85

83:                                               ; preds = %80
  %84 = load ptr, ptr %6, align 8, !tbaa !90
  store ptr @.str.23, ptr %84, align 8, !tbaa !7
  br label %85

85:                                               ; preds = %83, %80
  store i32 0, ptr %7, align 4, !tbaa !3
  br label %131

86:                                               ; preds = %3
  %87 = load ptr, ptr %5, align 8, !tbaa !90
  %88 = icmp ne ptr %87, null
  br i1 %88, label %89, label %91

89:                                               ; preds = %86
  %90 = load ptr, ptr %5, align 8, !tbaa !90
  store ptr @.str.12, ptr %90, align 8, !tbaa !7
  br label %91

91:                                               ; preds = %89, %86
  %92 = load ptr, ptr %6, align 8, !tbaa !90
  %93 = icmp ne ptr %92, null
  br i1 %93, label %94, label %96

94:                                               ; preds = %91
  %95 = load ptr, ptr %6, align 8, !tbaa !90
  store ptr @.str.13, ptr %95, align 8, !tbaa !7
  br label %96

96:                                               ; preds = %94, %91
  store i32 0, ptr %7, align 4, !tbaa !3
  br label %131

97:                                               ; preds = %3, %3
  %98 = load ptr, ptr %5, align 8, !tbaa !90
  %99 = icmp ne ptr %98, null
  br i1 %99, label %100, label %102

100:                                              ; preds = %97
  %101 = load ptr, ptr %5, align 8, !tbaa !90
  store ptr @.str.14, ptr %101, align 8, !tbaa !7
  br label %102

102:                                              ; preds = %100, %97
  %103 = load ptr, ptr %6, align 8, !tbaa !90
  %104 = icmp ne ptr %103, null
  br i1 %104, label %105, label %107

105:                                              ; preds = %102
  %106 = load ptr, ptr %6, align 8, !tbaa !90
  store ptr @.str.15, ptr %106, align 8, !tbaa !7
  br label %107

107:                                              ; preds = %105, %102
  store i32 0, ptr %7, align 4, !tbaa !3
  br label %131

108:                                              ; preds = %3
  %109 = load ptr, ptr %5, align 8, !tbaa !90
  %110 = icmp ne ptr %109, null
  br i1 %110, label %111, label %113

111:                                              ; preds = %108
  %112 = load ptr, ptr %5, align 8, !tbaa !90
  store ptr @.str.16, ptr %112, align 8, !tbaa !7
  br label %113

113:                                              ; preds = %111, %108
  %114 = load ptr, ptr %6, align 8, !tbaa !90
  %115 = icmp ne ptr %114, null
  br i1 %115, label %116, label %118

116:                                              ; preds = %113
  %117 = load ptr, ptr %6, align 8, !tbaa !90
  store ptr @.str.17, ptr %117, align 8, !tbaa !7
  br label %118

118:                                              ; preds = %116, %113
  store i32 0, ptr %7, align 4, !tbaa !3
  br label %131

119:                                              ; preds = %3
  %120 = load ptr, ptr %5, align 8, !tbaa !90
  %121 = icmp ne ptr %120, null
  br i1 %121, label %122, label %124

122:                                              ; preds = %119
  %123 = load ptr, ptr %5, align 8, !tbaa !90
  store ptr @.str.8, ptr %123, align 8, !tbaa !7
  br label %124

124:                                              ; preds = %122, %119
  %125 = load ptr, ptr %6, align 8, !tbaa !90
  %126 = icmp ne ptr %125, null
  br i1 %126, label %127, label %129

127:                                              ; preds = %124
  %128 = load ptr, ptr %6, align 8, !tbaa !90
  store ptr @.str.9, ptr %128, align 8, !tbaa !7
  br label %129

129:                                              ; preds = %127, %124
  store i32 0, ptr %7, align 4, !tbaa !3
  br label %131

130:                                              ; preds = %3
  store i32 -173, ptr %7, align 4, !tbaa !3
  br label %131

131:                                              ; preds = %130, %129, %118, %107, %96, %85, %74, %63, %52, %41, %30, %19
  %132 = load i32, ptr %7, align 4, !tbaa !3
  call void @llvm.lifetime.end.p0(i64 4, ptr %7) #9
  ret i32 %132
}