; Function Attrs: mustprogress nofree norecurse nosync nounwind willreturn memory(argmem: write) uwtable
define range(i32 -173, 1) i32 @wc_PemGetHeaderFooter(i32 noundef %0, ptr noundef writeonly captures(address_is_null) %1, ptr noundef writeonly captures(address_is_null) %2) local_unnamed_addr #12 {
  switch i32 %0, label %37 [
    i32 6, label %4
    i32 17, label %4
    i32 42, label %4
    i32 0, label %4
    i32 5, label %7
    i32 3, label %10
    i32 26, label %13
    i32 12, label %16
    i32 7, label %16
    i32 13, label %19
    i32 1, label %19
    i32 14, label %22
    i32 16, label %22
    i32 15, label %25
    i32 25, label %28
    i32 22, label %28
    i32 23, label %31
    i32 44, label %34
  ]

4:                                                ; preds = %3, %3, %3, %3
  %.not76 = icmp eq ptr %1, null
  br i1 %.not76, label %6, label %5

5:                                                ; preds = %4
  store ptr @.str, ptr %1, align 8, !tbaa !49
  br label %6

6:                                                ; preds = %5, %4
  %.not77 = icmp eq ptr %2, null
  br i1 %.not77, label %37, label %.sink.split

7:                                                ; preds = %3
  %.not74 = icmp eq ptr %1, null
  br i1 %.not74, label %9, label %8

8:                                                ; preds = %7
  store ptr @.str.6, ptr %1, align 8, !tbaa !49
  br label %9

9:                                                ; preds = %8, %7
  %.not75 = icmp eq ptr %2, null
  br i1 %.not75, label %37, label %.sink.split

10:                                               ; preds = %3
  %.not72 = icmp eq ptr %1, null
  br i1 %.not72, label %12, label %11

11:                                               ; preds = %10
  store ptr @.str.2, ptr %1, align 8, !tbaa !49
  br label %12

12:                                               ; preds = %11, %10
  %.not73 = icmp eq ptr %2, null
  br i1 %.not73, label %37, label %.sink.split

13:                                               ; preds = %3
  %.not70 = icmp eq ptr %1, null
  br i1 %.not70, label %15, label %14

14:                                               ; preds = %13
  store ptr @.str.4, ptr %1, align 8, !tbaa !49
  br label %15

15:                                               ; preds = %14, %13
  %.not71 = icmp eq ptr %2, null
  br i1 %.not71, label %37, label %.sink.split

16:                                               ; preds = %3, %3
  %.not68 = icmp eq ptr %1, null
  br i1 %.not68, label %18, label %17

17:                                               ; preds = %16
  store ptr @.str.18, ptr %1, align 8, !tbaa !49
  br label %18

18:                                               ; preds = %17, %16
  %.not69 = icmp eq ptr %2, null
  br i1 %.not69, label %37, label %.sink.split

19:                                               ; preds = %3, %3
  %.not66 = icmp eq ptr %1, null
  br i1 %.not66, label %21, label %20

20:                                               ; preds = %19
  store ptr @.str.10, ptr %1, align 8, !tbaa !49
  br label %21

21:                                               ; preds = %20, %19
  %.not67 = icmp eq ptr %2, null
  br i1 %.not67, label %37, label %.sink.split

22:                                               ; preds = %3, %3
  %.not64 = icmp eq ptr %1, null
  br i1 %.not64, label %24, label %23

23:                                               ; preds = %22
  store ptr @.str.22, ptr %1, align 8, !tbaa !49
  br label %24

24:                                               ; preds = %23, %22
  %.not65 = icmp eq ptr %2, null
  br i1 %.not65, label %37, label %.sink.split

25:                                               ; preds = %3
  %.not62 = icmp eq ptr %1, null
  br i1 %.not62, label %27, label %26

26:                                               ; preds = %25
  store ptr @.str.12, ptr %1, align 8, !tbaa !49
  br label %27

27:                                               ; preds = %26, %25
  %.not63 = icmp eq ptr %2, null
  br i1 %.not63, label %37, label %.sink.split

28:                                               ; preds = %3, %3
  %.not60 = icmp eq ptr %1, null
  br i1 %.not60, label %30, label %29

29:                                               ; preds = %28
  store ptr @.str.14, ptr %1, align 8, !tbaa !49
  br label %30

30:                                               ; preds = %29, %28
  %.not61 = icmp eq ptr %2, null
  br i1 %.not61, label %37, label %.sink.split

31:                                               ; preds = %3
  %.not58 = icmp eq ptr %1, null
  br i1 %.not58, label %33, label %32

32:                                               ; preds = %31
  store ptr @.str.16, ptr %1, align 8, !tbaa !49
  br label %33

33:                                               ; preds = %32, %31
  %.not59 = icmp eq ptr %2, null
  br i1 %.not59, label %37, label %.sink.split

34:                                               ; preds = %3
  %.not = icmp eq ptr %1, null
  br i1 %.not, label %36, label %35

35:                                               ; preds = %34
  store ptr @.str.8, ptr %1, align 8, !tbaa !49
  br label %36

36:                                               ; preds = %35, %34
  %.not57 = icmp eq ptr %2, null
  br i1 %.not57, label %37, label %.sink.split

.sink.split:                                      ; preds = %36, %33, %30, %27, %24, %21, %18, %15, %12, %9, %6
  %.str.9.sink = phi ptr [ @.str.1, %6 ], [ @.str.7, %9 ], [ @.str.3, %12 ], [ @.str.5, %15 ], [ @.str.19, %18 ], [ @.str.11, %21 ], [ @.str.23, %24 ], [ @.str.13, %27 ], [ @.str.15, %30 ], [ @.str.17, %33 ], [ @.str.9, %36 ]
  store ptr %.str.9.sink, ptr %2, align 8, !tbaa !49
  br label %37

37:                                               ; preds = %.sink.split, %3, %36, %33, %30, %27, %24, %21, %18, %15, %12, %9, %6
  %.0 = phi i32 [ 0, %6 ], [ 0, %9 ], [ 0, %12 ], [ 0, %15 ], [ 0, %18 ], [ 0, %21 ], [ 0, %24 ], [ 0, %27 ], [ 0, %30 ], [ 0, %33 ], [ 0, %36 ], [ -173, %3 ], [ 0, %.sink.split ]
  ret i32 %.0
}